(dp0
S'jason'
p1
I113
sS'office'
p2
I20
sS'yellow'
p3
I75
sS'handed'
p4
I143
sS'bedroom'
p5
I7
sS'go'
p6
I107
sS'yes'
p7
I14
sS'milk'
p8
I127
sS'before'
p9
I45
sS'grabbed'
p10
I122
sS'fit'
p11
I99
sS'how'
p12
I104
sS'swan'
p13
I64
sS'than'
p14
I95
sS'to'
p15
I10
sS'does'
p16
I98
sS'east'
p17
I103
sS'rectangle'
p18
I78
sS'gave'
p19
I139
sS'then'
p20
I33
sS'evening'
p21
I46
sS'triangle'
p22
I80
sS'garden'
p23
I29
sS'get'
p24
I125
sS'they'
p25
I39
sS'not'
p26
I155
sS'bigger'
p27
I94
sS'gray'
p28
I70
sS'school'
p29
I4
sS'apple'
p30
I128
sS'did'
p31
I119
sS'morning'
p32
I41
sS'discarded'
p33
I137
sS'julius'
p34
I71
sS'she'
p35
I34
sS'went'
p36
I15
sS'where'
p37
I30
sS'jeff'
p38
I140
sS'square'
p39
I82
sS'tired'
p40
I130
sS'back'
p41
I16
sS'lion'
p42
I66
sS'are'
p43
I48
sS'picked'
p44
I133
sS'n'
p45
I111
sS'pajamas'
p46
I132
sS'blue'
p47
I85
sS'what'
p48
I62
sS'container'
p49
I93
sS'give'
p50
I141
sS'rhino'
p51
I72
sS'daniel'
p52
I37
sS'bernhard'
p53
I65
sS'above'
p54
I86
sS'got'
p55
I131
sS'emily'
p56
I58
sS'red'
p57
I81
sS'either'
p58
I18
sS'gertrude'
p59
I60
sS'football'
p60
I123
sS'jessica'
p61
I56
sS'do'
p62
I105
sS'fred'
p63
I11
sS'winona'
p64
I53
sS'objects'
p65
I147
sS'put'
p66
I135
sS'kitchen'
p67
I6
sS'box'
p68
I91
sS'received'
p69
I144
sS'journeyed'
p70
I9
sS'of'
p71
I50
sS's'
p72
I109
sS'wolf'
p73
I61
sS'afternoon'
p74
I42
sS'w'
p75
I112
sS'or'
p76
I19
sS'south'
p77
I102
sS'there'
p78
I124
sS'afterwards'
p79
I35
sS'sumit'
p80
I120
sS'color'
p81
I73
sS'julie'
p82
I21
sS'?'
p83
I156
sS'one'
p84
I149
sS'down'
p85
I136
sS'nothing'
p86
I153
sS'right'
p87
I83
sS'.'
p88
I157
sS'sheep'
p89
I52
sS'bathroom'
p90
I36
sS'from'
p91
I108
sS'west'
p92
I100
sS'chocolates'
p93
I96
sS'two'
p94
I151
sS'frog'
p95
I74
sS'why'
p96
I118
sS'cats'
p97
I55
sS'passed'
p98
I145
sS'travelled'
p99
I12
sS'john'
p100
I24
sS'was'
p101
I44
sS'mary'
p102
I0
sS'north'
p103
I101
sS'that'
p104
I27
sS'park'
p105
I17
sS'took'
p106
I126
sS'chocolate'
p107
I92
sS'carrying'
p108
I148
sS'mice'
p109
I51
sS'white'
p110
I68
sS'he'
p111
I28
sS'none'
p112
I150
sS'bored'
p113
I117
sS'this'
p114
I40
sS'inside'
p115
I90
sS'bill'
p116
I5
sS'up'
p117
I134
sS'cat'
p118
I59
sS'will'
p119
I115
sS'below'
p120
I84
sS'greg'
p121
I67
sS'three'
p122
I152
sS'suitcase'
p123
I88
sS'following'
p124
I31
sS'and'
p125
I38
sS'thirsty'
p126
I114
sS'cinema'
p127
I13
sS'is'
p128
I1
sS'moved'
p129
I22
sS'yann'
p130
I129
sS'sphere'
p131
I87
sS'dropped'
p132
I138
sS'in'
p133
I2
sS'mouse'
p134
I57
sS'pink'
p135
I77
sS'afraid'
p136
I49
sS'no'
p137
I8
sS'-'
p138
I158
sS'who'
p139
I142
sS'antoine'
p140
I116
sS'brian'
p141
I69
sS'chest'
p142
I97
sS'you'
p143
I106
sS'many'
p144
I146
sS'lily'
p145
I63
sS'hallway'
p146
I25
sS'after'
p147
I26
sS'yesterday'
p148
I43
sS'sandra'
p149
I32
sS'fits'
p150
I89
sS'the'
p151
I3
sS'a'
p152
I54
sS'e'
p153
I110
sS'longer'
p154
I154
sS'maybe'
p155
I23
sS'hungry'
p156
I121
sS'green'
p157
I76
sS'wolves'
p158
I47
sS'left'
p159
I79
s.